; Function Attrs: mustprogress nofree norecurse nosync nounwind memory(readwrite, inaccessiblemem: none) uwtable
define void @_ZN6icu_759UVector3215removeElementAtEi(ptr nocapture noundef nonnull align 8 dereferenceable(32) %this, i32 noundef %index) local_unnamed_addr #9 align 2 {
entry:
  %cmp = icmp sgt i32 %index, -1
  br i1 %cmp, label %for.cond.preheader, label %if.end

for.cond.preheader:                               ; preds = %entry
  %count = getelementptr inbounds i8, ptr %this, i64 8
  %0 = load i32, ptr %count, align 8
  %sub5 = add nsw i32 %0, -1
  %cmp26 = icmp sgt i32 %sub5, %index
  br i1 %cmp26, label %for.body.lr.ph, label %for.end

for.body.lr.ph:                                   ; preds = %for.cond.preheader
  %elements = getelementptr inbounds i8, ptr %this, i64 24
  %1 = zext nneg i32 %index to i64
  br label %for.body

for.body:                                         ; preds = %for.body.lr.ph, %for.body
  %indvars.iv = phi i64 [ %1, %for.body.lr.ph ], [ %indvars.iv.next, %for.body ]
  %2 = load ptr, ptr %elements, align 8
  %indvars.iv.next = add nuw nsw i64 %indvars.iv, 1
  %arrayidx = getelementptr inbounds i32, ptr %2, i64 %indvars.iv.next
  %3 = load i32, ptr %arrayidx, align 4
  %arrayidx5 = getelementptr inbounds i32, ptr %2, i64 %indvars.iv
  store i32 %3, ptr %arrayidx5, align 4
  %4 = load i32, ptr %count, align 8
  %sub = add nsw i32 %4, -1
  %5 = trunc i64 %indvars.iv.next to i32
  %cmp2 = icmp sgt i32 %sub, %5
  br i1 %cmp2, label %for.body, label %for.end, !llvm.loop !12

for.end:                                          ; preds = %for.body, %for.cond.preheader
  %sub.lcssa = phi i32 [ %sub5, %for.cond.preheader ], [ %sub, %for.body ]
  store i32 %sub.lcssa, ptr %count, align 8
  br label %if.end

if.end:                                           ; preds = %for.end, %entry
  ret void
}